; Function Attrs: mustprogress uwtable
define hidden void @_ZN5osgeo4proj22CPLJSonStreamingWriter9IncIndentEv(ptr noundef nonnull align 8 dereferenceable(153) %0) local_unnamed_addr #0 align 2 {
  %2 = getelementptr inbounds i8, ptr %0, i64 120
  %3 = load i32, ptr %2, align 8
  %4 = add nsw i32 %3, 1
  store i32 %4, ptr %2, align 8
  %5 = getelementptr inbounds i8, ptr %0, i64 48
  %6 = load i8, ptr %5, align 8
  %7 = trunc i8 %6 to i1
  br i1 %7, label %8, label %12

8:                                                ; preds = %1
  %9 = getelementptr inbounds i8, ptr %0, i64 56
  %10 = getelementptr inbounds i8, ptr %0, i64 88
  %11 = tail call noundef nonnull align 8 dereferenceable(32) ptr @_ZNSt7__cxx1112basic_stringIcSt11char_traitsIcESaIcEEpLERKS4_(ptr noundef nonnull align 8 dereferenceable(32) %10, ptr noundef nonnull align 8 dereferenceable(32) %9)
  br label %12

12:                                               ; preds = %8, %1
  ret void
}